; Function Attrs: nounwind uwtable
define dso_local noundef ptr @decNumberNextPlus(ptr noundef returned %0, ptr noundef captures(address) %1, ptr noundef %2) local_unnamed_addr #4 {
  %4 = alloca %struct.decNumber, align 4
  %5 = alloca %struct.decContext, align 4
  %6 = alloca i32, align 4
  call void @llvm.lifetime.start.p0(i64 12, ptr nonnull %4) #18
  call void @llvm.lifetime.start.p0(i64 28, ptr nonnull %5) #18
  call void @llvm.memcpy.p0.p0.i64(ptr noundef nonnull align 4 dereferenceable(28) %5, ptr noundef nonnull align 4 dereferenceable(28) %2, i64 28, i1 false), !tbaa.struct !46
  call void @llvm.lifetime.start.p0(i64 4, ptr nonnull %6) #18
  store i32 0, ptr %6, align 4, !tbaa !16
  %7 = getelementptr inbounds nuw i8, ptr %1, i64 8
  %8 = load i8, ptr %7, align 4, !tbaa !4
  %9 = icmp ugt i8 %8, -65
  br i1 %9, label %10, label %27

10:                                               ; preds = %3
  %11 = load i32, ptr %2, align 4, !tbaa !25
  store i32 %11, ptr %0, align 4, !tbaa !10
  %12 = getelementptr inbounds nuw i8, ptr %0, i64 10
  %13 = icmp sgt i32 %11, 3
  br i1 %13, label %.lr.ph.i, label %decSetMaxValue.exit

.lr.ph.i:                                         ; preds = %10, %.lr.ph.i
  %.015.i = phi i32 [ %14, %.lr.ph.i ], [ %11, %10 ]
  %.01314.i = phi ptr [ %15, %.lr.ph.i ], [ %12, %10 ]
  store i16 999, ptr %.01314.i, align 2, !tbaa !11
  %14 = add nsw i32 %.015.i, -3
  %15 = getelementptr inbounds nuw i8, ptr %.01314.i, i64 2
  %16 = icmp samesign ugt i32 %.015.i, 6
  br i1 %16, label %.lr.ph.i, label %decSetMaxValue.exit

decSetMaxValue.exit:                              ; preds = %.lr.ph.i, %10
  %.013.lcssa.i = phi ptr [ %12, %10 ], [ %15, %.lr.ph.i ]
  %.0.lcssa.i = phi i32 [ %11, %10 ], [ %14, %.lr.ph.i ]
  %17 = sext i32 %.0.lcssa.i to i64
  %18 = getelementptr inbounds [10 x i32], ptr @DECPOWERS, i64 0, i64 %17
  %19 = load i32, ptr %18, align 4, !tbaa !16
  %20 = trunc i32 %19 to i16
  %21 = add i16 %20, -1
  store i16 %21, ptr %.013.lcssa.i, align 2, !tbaa !11
  %22 = getelementptr inbounds nuw i8, ptr %0, i64 8
  %23 = getelementptr inbounds nuw i8, ptr %2, i64 4
  %24 = load i32, ptr %23, align 4, !tbaa !31
  %reass.sub = sub i32 %24, %11
  %25 = add i32 %reass.sub, 1
  %26 = getelementptr inbounds nuw i8, ptr %0, i64 4
  store i32 %25, ptr %26, align 4, !tbaa !9
  store i8 -128, ptr %22, align 4, !tbaa !4
  br label %44

27:                                               ; preds = %3
  %28 = getelementptr inbounds nuw i8, ptr %4, i64 8
  store i8 0, ptr %28, align 4, !tbaa !4
  %29 = getelementptr inbounds nuw i8, ptr %4, i64 4
  store i32 1, ptr %4, align 4, !tbaa !10
  %30 = getelementptr inbounds nuw i8, ptr %4, i64 10
  store i16 1, ptr %30, align 2, !tbaa !11
  store i32 -1000000000, ptr %29, align 4, !tbaa !9
  %31 = getelementptr inbounds nuw i8, ptr %5, i64 12
  store i32 0, ptr %31, align 4, !tbaa !35
  %32 = call fastcc ptr @decAddOp(ptr noundef %0, ptr noundef nonnull %1, ptr noundef nonnull %4, ptr noundef nonnull %5, i8 noundef zeroext 0, ptr noundef %6)
  %33 = load i32, ptr %6, align 4, !tbaa !16
  %34 = and i32 %33, 1073741952
  %.not = icmp eq i32 %34, 0
  br i1 %.not, label %44, label %35

35:                                               ; preds = %27
  %36 = and i32 %33, 128
  %.not.i = icmp eq i32 %36, 0
  br i1 %.not.i, label %decStatus.exit, label %37

37:                                               ; preds = %35
  %38 = and i32 %33, 1073741824
  %.not6.i = icmp eq i32 %38, 0
  br i1 %.not6.i, label %39, label %decStatus.exit

39:                                               ; preds = %37
  %40 = getelementptr inbounds nuw i8, ptr %0, i64 8
  %41 = getelementptr inbounds nuw i8, ptr %0, i64 4
  store i32 0, ptr %41, align 4, !tbaa !9
  store i32 1, ptr %0, align 4, !tbaa !10
  %42 = getelementptr inbounds nuw i8, ptr %0, i64 10
  store i16 0, ptr %42, align 2, !tbaa !11
  store i8 32, ptr %40, align 4, !tbaa !4
  br label %decStatus.exit

decStatus.exit:                                   ; preds = %37, %35, %39
  %.0.i = phi i32 [ %34, %39 ], [ %34, %35 ], [ 128, %37 ]
  %43 = call ptr @decContextSetStatus(ptr noundef nonnull %2, i32 noundef %.0.i) #18
  br label %44

44:                                               ; preds = %27, %decStatus.exit, %decSetMaxValue.exit
  call void @llvm.lifetime.end.p0(i64 4, ptr nonnull %6) #18
  call void @llvm.lifetime.end.p0(i64 28, ptr nonnull %5) #18
  call void @llvm.lifetime.end.p0(i64 12, ptr nonnull %4) #18
  ret ptr %0
}